target datalayout = "e-m:e-p270:32:32-p271:32:32-p272:64:64-i64:64-i128:128-f80:128-n8:16:32:64-S128"
target triple = "x86_64-pc-linux-gnu"

%struct.darktable_t = type { %struct.dt_codepath_t, i32, i32, ptr, ptr, ptr, ptr, ptr, ptr, ptr, ptr, ptr, ptr, ptr, ptr, ptr, ptr, ptr, ptr, ptr, ptr, ptr, ptr, ptr, ptr, ptr, ptr, ptr, ptr, ptr, [64 x %struct.dt_pthread_mutex_t], %struct.dt_pthread_mutex_t, %struct.dt_pthread_mutex_t, %struct.dt_pthread_mutex_t, %struct.dt_pthread_mutex_t, %struct.dt_pthread_mutex_t, ptr, ptr, ptr, ptr, ptr, ptr, ptr, ptr, ptr, ptr, ptr, ptr, ptr, %struct.dt_lua_state_t, ptr, double, ptr, i32, [47 x i32], i32, i32, ptr, ptr, %struct.dt_sys_resources_t, %struct.dt_backthumb_t, %struct.dt_gimp_t }
%struct.dt_codepath_t = type { i8, [3 x i8] }
%struct.dt_pthread_mutex_t = type { %union.pthread_mutex_t }
%union.pthread_mutex_t = type { %struct.__pthread_mutex_s }
%struct.__pthread_mutex_s = type { i32, i32, i32, i32, i32, i16, i16, %struct.__pthread_internal_list }
%struct.__pthread_internal_list = type { ptr, ptr }
%struct.dt_lua_state_t = type { i32 }
%struct.dt_sys_resources_t = type { i64, i64, ptr, ptr, i32 }
%struct.dt_backthumb_t = type { double, double, i32, i32, i32, i32 }
%struct.dt_gimp_t = type { i32, ptr, ptr, i32, i32 }
%struct.dt_iop_lut3d_params_t = type { [512 x i8], i32, i32, i32, [12288 x i8], [128 x i8] }
%struct.dt_dev_histogram_stats_t = type { i32, i64, i32, i32 }
%struct.dt_iop_module_t = type { i32, ptr, ptr, ptr, ptr, ptr, ptr, ptr, ptr, ptr, ptr, ptr, ptr, ptr, ptr, ptr, ptr, ptr, ptr, ptr, ptr, ptr, ptr, ptr, ptr, ptr, ptr, ptr, ptr, ptr, ptr, ptr, ptr, ptr, ptr, ptr, ptr, ptr, ptr, ptr, ptr, ptr, ptr, ptr, ptr, ptr, ptr, ptr, ptr, ptr, ptr, ptr, ptr, ptr, ptr, ptr, ptr, [20 x i8], i32, i32, i32, i32, i32, i32, i32, [8 x i8], [4 x float], [4 x float], [4 x float], [4 x float], [4 x float], [4 x float], ptr, %struct.dt_dev_histogram_stats_t, [4 x i32], i32, i32, ptr, i32, i32, ptr, ptr, i32, ptr, %struct.dt_pthread_mutex_t, ptr, ptr, ptr, ptr, %struct.anon.1, ptr, ptr, ptr, ptr, ptr, ptr, ptr, i32, ptr, ptr, ptr, ptr, ptr, ptr, ptr, i32, ptr, i32, [128 x i8], i32, ptr, ptr, i32, [12 x i8] }
%struct.anon.1 = type { %struct.anon.2, %struct.anon.3 }
%struct.anon.2 = type { ptr, ptr }
%struct.anon.3 = type { ptr, i32 }
%struct._GtkTreeIter = type { i32, ptr, ptr, ptr }
%struct.dt_gui_gtk_t = type { ptr, %struct.dt_gui_widgets_t, %struct.dt_gui_scrollbars_t, i32, ptr, i32, [39 x %struct._GdkRGBA], i32, i32, i32, i32, i32, double, double, double, double, ptr, double, double, double, double, i32, i32, [4096 x i8], i32, i32, i32, %struct.dt_pthread_mutex_t }
%struct.dt_gui_widgets_t = type { ptr, ptr, ptr, ptr, i32, i32, i32 }
%struct.dt_gui_scrollbars_t = type { ptr, ptr, i32 }
%struct._GdkRGBA = type { double, double, double, double }

@darktable = external global %struct.darktable_t, align 8

; Function Attrs: nounwind uwtable
define internal void @lutname_callback(ptr noundef %0, ptr noundef %1) #0 {
  %3 = alloca ptr, align 8
  %4 = alloca ptr, align 8
  %5 = alloca ptr, align 8
  %6 = alloca %struct._GtkTreeIter, align 8
  %7 = alloca ptr, align 8
  %8 = alloca ptr, align 8
  store ptr %0, ptr %3, align 8, !tbaa !172
  store ptr %1, ptr %4, align 8, !tbaa !6
  %9 = load ptr, ptr getelementptr inbounds nuw (%struct.darktable_t, ptr @darktable, i32 0, i32 14), align 8, !tbaa !190
  %10 = getelementptr inbounds nuw %struct.dt_gui_gtk_t, ptr %9, i32 0, i32 5
  %11 = load i32, ptr %10, align 8, !tbaa !212
  %12 = icmp ne i32 %11, 0
  br i1 %12, label %13, label %14

13:                                               ; preds = %2
  br label %47

14:                                               ; preds = %2
  call void @llvm.lifetime.start.p0(i64 8, ptr %5) #13
  %15 = load ptr, ptr %4, align 8, !tbaa !6
  %16 = getelementptr inbounds nuw %struct.dt_iop_module_t, ptr %15, i32 0, i32 80
  %17 = load ptr, ptr %16, align 8, !tbaa !179
  store ptr %17, ptr %5, align 8, !tbaa !43
  call void @llvm.lifetime.start.p0(i64 32, ptr %6) #13
  call void @llvm.lifetime.start.p0(i64 8, ptr %7) #13
  call void @llvm.lifetime.start.p0(i64 8, ptr %8) #13
  %18 = load ptr, ptr %3, align 8, !tbaa !172
  %19 = call i32 @gtk_tree_selection_get_selected(ptr noundef %18, ptr noundef %7, ptr noundef %6)
  %20 = icmp ne i32 %19, 0
  br i1 %20, label %21, label %46

21:                                               ; preds = %14
  %22 = load ptr, ptr %7, align 8, !tbaa !170
  call void (ptr, ptr, ...) @gtk_tree_model_get(ptr noundef %22, ptr noundef %6, i32 noundef 0, ptr noundef %8, i32 noundef -1)
  %23 = load ptr, ptr %8, align 8, !tbaa !41
  %24 = getelementptr inbounds i8, ptr %23, i64 0
  %25 = load i8, ptr %24, align 1, !tbaa !47
  %26 = sext i8 %25 to i32
  %27 = icmp ne i32 %26, 0
  br i1 %27, label %28, label %44

28:                                               ; preds = %21
  %29 = load ptr, ptr %8, align 8, !tbaa !41
  %30 = load ptr, ptr %5, align 8, !tbaa !43
  %31 = getelementptr inbounds nuw %struct.dt_iop_lut3d_params_t, ptr %30, i32 0, i32 5
  %32 = getelementptr inbounds [128 x i8], ptr %31, i64 0, i64 0
  %33 = call i32 @strcmp(ptr noundef %29, ptr noundef %32) #15
  %34 = icmp ne i32 %33, 0
  br i1 %34, label %35, label %44

35:                                               ; preds = %28
  %36 = load ptr, ptr %5, align 8, !tbaa !43
  %37 = getelementptr inbounds nuw %struct.dt_iop_lut3d_params_t, ptr %36, i32 0, i32 5
  %38 = getelementptr inbounds [128 x i8], ptr %37, i64 0, i64 0
  %39 = load ptr, ptr %8, align 8, !tbaa !41
  %40 = call i64 @g_strlcpy(ptr noundef %38, ptr noundef %39, i64 noundef 128)
  %41 = load ptr, ptr %4, align 8, !tbaa !6
  call void @get_compressed_clut(ptr noundef %41, i32 noundef 1)
  %42 = load ptr, ptr getelementptr inbounds nuw (%struct.darktable_t, ptr @darktable, i32 0, i32 9), align 8, !tbaa !213
  %43 = load ptr, ptr %4, align 8, !tbaa !6
  call void @dt_dev_add_history_item(ptr noundef %42, ptr noundef %43, i32 noundef 1)
  br label %44

44:                                               ; preds = %35, %28, %21
  %45 = load ptr, ptr %8, align 8, !tbaa !41
  call void @g_free(ptr noundef %45)
  br label %46

46:                                               ; preds = %44, %14
  call void @llvm.lifetime.end.p0(i64 8, ptr %8) #13
  call void @llvm.lifetime.end.p0(i64 8, ptr %7) #13
  call void @llvm.lifetime.end.p0(i64 32, ptr %6) #13
  call void @llvm.lifetime.end.p0(i64 8, ptr %5) #13
  br label %47

47:                                               ; preds = %46, %13
  ret void
}