; Function Attrs: nounwind uwtable
define internal void @lutname_callback(ptr noundef %0, ptr noundef %1) #1 {
  %3 = alloca %struct._GtkTreeIter, align 8
  %4 = alloca ptr, align 8
  %5 = alloca ptr, align 8
  %6 = load ptr, ptr getelementptr inbounds nuw (i8, ptr @darktable, i64 104), align 8, !tbaa !152
  %7 = getelementptr inbounds nuw i8, ptr %6, i64 96
  %8 = load i32, ptr %7, align 8, !tbaa !163
  %.not = icmp eq i32 %8, 0
  br i1 %.not, label %9, label %27

9:                                                ; preds = %2
  %10 = getelementptr inbounds nuw i8, ptr %1, i64 680
  %11 = load ptr, ptr %10, align 8, !tbaa !138
  call void @llvm.lifetime.start.p0(i64 32, ptr nonnull %3) #25
  call void @llvm.lifetime.start.p0(i64 8, ptr nonnull %4) #25
  call void @llvm.lifetime.start.p0(i64 8, ptr nonnull %5) #25
  %12 = call i32 @gtk_tree_selection_get_selected(ptr noundef %0, ptr noundef nonnull %4, ptr noundef nonnull %3) #25
  %.not6 = icmp eq i32 %12, 0
  br i1 %.not6, label %26, label %13

13:                                               ; preds = %9
  %14 = load ptr, ptr %4, align 8, !tbaa !148
  call void (ptr, ptr, ...) @gtk_tree_model_get(ptr noundef %14, ptr noundef nonnull %3, i32 noundef 0, ptr noundef nonnull %5, i32 noundef -1) #25
  %15 = load ptr, ptr %5, align 8, !tbaa !74
  %16 = load i8, ptr %15, align 1, !tbaa !73
  %.not7 = icmp eq i8 %16, 0
  br i1 %.not7, label %24, label %17

17:                                               ; preds = %13
  %18 = getelementptr inbounds nuw i8, ptr %11, i64 12812
  %19 = call i32 @strcmp(ptr noundef nonnull dereferenceable(1) %15, ptr noundef nonnull dereferenceable(1) %18) #27
  %.not8 = icmp eq i32 %19, 0
  br i1 %.not8, label %24, label %20

20:                                               ; preds = %17
  %21 = call i64 @g_strlcpy(ptr noundef nonnull %18, ptr noundef nonnull %15, i64 noundef 128) #25
  %.val = load ptr, ptr %10, align 8, !tbaa !138
  %22 = getelementptr i8, ptr %1, i64 704
  %.val9 = load ptr, ptr %22, align 16, !tbaa !137
  call fastcc void @get_compressed_clut(ptr %.val, ptr %.val9, i32 noundef 1)
  %23 = load ptr, ptr getelementptr inbounds nuw (i8, ptr @darktable, i64 64), align 8, !tbaa !164
  call void @dt_dev_add_history_item(ptr noundef %23, ptr noundef nonnull %1, i32 noundef 1) #25
  %.pre = load ptr, ptr %5, align 8, !tbaa !74
  br label %24

24:                                               ; preds = %20, %17, %13
  %25 = phi ptr [ %.pre, %20 ], [ %15, %17 ], [ %15, %13 ]
  call void @g_free(ptr noundef %25) #25
  br label %26

26:                                               ; preds = %24, %9
  call void @llvm.lifetime.end.p0(i64 8, ptr nonnull %5) #25
  call void @llvm.lifetime.end.p0(i64 8, ptr nonnull %4) #25
  call void @llvm.lifetime.end.p0(i64 32, ptr nonnull %3) #25
  br label %27

27:                                               ; preds = %2, %26
  ret void
}